; ModuleID = '20/328.c'
source_filename = "20/328.c"
target datalayout = "e-m:e-p270:32:32-p271:32:32-p272:64:64-i64:64-f80:128-n8:16:32:64-S128"
target triple = "x86_64-pc-linux-gnu"

@.str = private unnamed_addr constant [3 x i8] c"%c\00", align 1
@.str.1 = private unnamed_addr constant [2 x i8] c"\0A\00", align 1

; Function Attrs: noinline nounwind uwtable
define dso_local void @main() #0 {
  %1 = alloca [14 x i8], align 1
  %2 = alloca [14 x i8], align 1
  %3 = alloca i8, align 1
  %4 = alloca i32, align 4
  %5 = alloca i32, align 4
  %6 = alloca i32, align 4
  %7 = alloca i32, align 4
  %8 = alloca i32, align 4
  br label %9

9:                                                ; preds = %162, %0
  %10 = getelementptr inbounds [14 x i8], [14 x i8]* %1, i64 0, i64 0
  %11 = call i32 (i8*, ...) bitcast (i32 (...)* @gets to i32 (i8*, ...)*)(i8* %10)
  %12 = icmp ne i32 %11, 0
  br i1 %12, label %13, label %164

13:                                               ; preds = %9
  %14 = getelementptr inbounds [14 x i8], [14 x i8]* %2, i64 0, i64 0
  %15 = getelementptr inbounds [14 x i8], [14 x i8]* %1, i64 0, i64 0
  %16 = call i8* @strcpy(i8* %14, i8* %15) #4
  %17 = getelementptr inbounds [14 x i8], [14 x i8]* %1, i64 0, i64 0
  %18 = call i64 @strlen(i8* %17) #5
  %19 = trunc i64 %18 to i32
  store i32 %19, i32* %5, align 4
  store i32 0, i32* %4, align 4
  br label %20

20:                                               ; preds = %34, %13
  %21 = load i32, i32* %4, align 4
  %22 = load i32, i32* %5, align 4
  %23 = icmp slt i32 %21, %22
  br i1 %23, label %24, label %37

24:                                               ; preds = %20
  %25 = load i32, i32* %4, align 4
  %26 = sext i32 %25 to i64
  %27 = getelementptr inbounds [14 x i8], [14 x i8]* %1, i64 0, i64 %26
  %28 = load i8, i8* %27, align 1
  %29 = sext i8 %28 to i32
  %30 = icmp eq i32 %29, 32
  br i1 %30, label %31, label %33

31:                                               ; preds = %24
  %32 = load i32, i32* %4, align 4
  store i32 %32, i32* %7, align 4
  br label %37

33:                                               ; preds = %24
  br label %34

34:                                               ; preds = %33
  %35 = load i32, i32* %4, align 4
  %36 = add nsw i32 %35, 1
  store i32 %36, i32* %4, align 4
  br label %20

37:                                               ; preds = %31, %20
  store i32 0, i32* %4, align 4
  br label %38

38:                                               ; preds = %87, %37
  %39 = load i32, i32* %4, align 4
  %40 = load i32, i32* %7, align 4
  %41 = sub nsw i32 %40, 1
  %42 = icmp slt i32 %39, %41
  br i1 %42, label %43, label %90

43:                                               ; preds = %38
  store i32 0, i32* %6, align 4
  br label %44

44:                                               ; preds = %83, %43
  %45 = load i32, i32* %6, align 4
  %46 = load i32, i32* %7, align 4
  %47 = sub nsw i32 %46, 1
  %48 = load i32, i32* %4, align 4
  %49 = sub nsw i32 %47, %48
  %50 = icmp slt i32 %45, %49
  br i1 %50, label %51, label %86

51:                                               ; preds = %44
  %52 = load i32, i32* %6, align 4
  %53 = sext i32 %52 to i64
  %54 = getelementptr inbounds [14 x i8], [14 x i8]* %2, i64 0, i64 %53
  %55 = load i8, i8* %54, align 1
  %56 = sext i8 %55 to i32
  %57 = load i32, i32* %6, align 4
  %58 = add nsw i32 %57, 1
  %59 = sext i32 %58 to i64
  %60 = getelementptr inbounds [14 x i8], [14 x i8]* %2, i64 0, i64 %59
  %61 = load i8, i8* %60, align 1
  %62 = sext i8 %61 to i32
  %63 = icmp slt i32 %56, %62
  br i1 %63, label %64, label %82

64:                                               ; preds = %51
  %65 = load i32, i32* %6, align 4
  %66 = sext i32 %65 to i64
  %67 = getelementptr inbounds [14 x i8], [14 x i8]* %2, i64 0, i64 %66
  %68 = load i8, i8* %67, align 1
  store i8 %68, i8* %3, align 1
  %69 = load i32, i32* %6, align 4
  %70 = add nsw i32 %69, 1
  %71 = sext i32 %70 to i64
  %72 = getelementptr inbounds [14 x i8], [14 x i8]* %2, i64 0, i64 %71
  %73 = load i8, i8* %72, align 1
  %74 = load i32, i32* %6, align 4
  %75 = sext i32 %74 to i64
  %76 = getelementptr inbounds [14 x i8], [14 x i8]* %2, i64 0, i64 %75
  store i8 %73, i8* %76, align 1
  %77 = load i8, i8* %3, align 1
  %78 = load i32, i32* %6, align 4
  %79 = add nsw i32 %78, 1
  %80 = sext i32 %79 to i64
  %81 = getelementptr inbounds [14 x i8], [14 x i8]* %2, i64 0, i64 %80
  store i8 %77, i8* %81, align 1
  br label %82

82:                                               ; preds = %64, %51
  br label %83

83:                                               ; preds = %82
  %84 = load i32, i32* %6, align 4
  %85 = add nsw i32 %84, 1
  store i32 %85, i32* %6, align 4
  br label %44

86:                                               ; preds = %44
  br label %87

87:                                               ; preds = %86
  %88 = load i32, i32* %4, align 4
  %89 = add nsw i32 %88, 1
  store i32 %89, i32* %4, align 4
  br label %38

90:                                               ; preds = %38
  store i32 0, i32* %4, align 4
  br label %91

91:                                               ; preds = %109, %90
  %92 = load i32, i32* %4, align 4
  %93 = load i32, i32* %7, align 4
  %94 = sub nsw i32 %93, 1
  %95 = icmp slt i32 %92, %94
  br i1 %95, label %96, label %112

96:                                               ; preds = %91
  %97 = load i32, i32* %4, align 4
  %98 = sext i32 %97 to i64
  %99 = getelementptr inbounds [14 x i8], [14 x i8]* %1, i64 0, i64 %98
  %100 = load i8, i8* %99, align 1
  %101 = sext i8 %100 to i32
  %102 = getelementptr inbounds [14 x i8], [14 x i8]* %2, i64 0, i64 0
  %103 = load i8, i8* %102, align 1
  %104 = sext i8 %103 to i32
  %105 = icmp eq i32 %101, %104
  br i1 %105, label %106, label %108

106:                                              ; preds = %96
  %107 = load i32, i32* %4, align 4
  store i32 %107, i32* %8, align 4
  br label %112

108:                                              ; preds = %96
  br label %109

109:                                              ; preds = %108
  %110 = load i32, i32* %4, align 4
  %111 = add nsw i32 %110, 1
  store i32 %111, i32* %4, align 4
  br label %91

112:                                              ; preds = %106, %91
  store i32 0, i32* %4, align 4
  br label %113

113:                                              ; preds = %124, %112
  %114 = load i32, i32* %4, align 4
  %115 = load i32, i32* %8, align 4
  %116 = icmp sle i32 %114, %115
  br i1 %116, label %117, label %127

117:                                              ; preds = %113
  %118 = load i32, i32* %4, align 4
  %119 = sext i32 %118 to i64
  %120 = getelementptr inbounds [14 x i8], [14 x i8]* %1, i64 0, i64 %119
  %121 = load i8, i8* %120, align 1
  %122 = sext i8 %121 to i32
  %123 = call i32 (i8*, ...) @printf(i8* getelementptr inbounds ([3 x i8], [3 x i8]* @.str, i64 0, i64 0), i32 %122)
  br label %124

124:                                              ; preds = %117
  %125 = load i32, i32* %4, align 4
  %126 = add nsw i32 %125, 1
  store i32 %126, i32* %4, align 4
  br label %113

127:                                              ; preds = %113
  %128 = load i32, i32* %5, align 4
  %129 = sub nsw i32 %128, 3
  store i32 %129, i32* %4, align 4
  br label %130

130:                                              ; preds = %141, %127
  %131 = load i32, i32* %4, align 4
  %132 = load i32, i32* %5, align 4
  %133 = icmp slt i32 %131, %132
  br i1 %133, label %134, label %144

134:                                              ; preds = %130
  %135 = load i32, i32* %4, align 4
  %136 = sext i32 %135 to i64
  %137 = getelementptr inbounds [14 x i8], [14 x i8]* %1, i64 0, i64 %136
  %138 = load i8, i8* %137, align 1
  %139 = sext i8 %138 to i32
  %140 = call i32 (i8*, ...) @printf(i8* getelementptr inbounds ([3 x i8], [3 x i8]* @.str, i64 0, i64 0), i32 %139)
  br label %141

141:                                              ; preds = %134
  %142 = load i32, i32* %4, align 4
  %143 = add nsw i32 %142, 1
  store i32 %143, i32* %4, align 4
  br label %130

144:                                              ; preds = %130
  %145 = load i32, i32* %8, align 4
  %146 = add nsw i32 %145, 1
  store i32 %146, i32* %4, align 4
  br label %147

147:                                              ; preds = %159, %144
  %148 = load i32, i32* %4, align 4
  %149 = load i32, i32* %7, align 4
  %150 = sub nsw i32 %149, 1
  %151 = icmp sle i32 %148, %150
  br i1 %151, label %152, label %162

152:                                              ; preds = %147
  %153 = load i32, i32* %4, align 4
  %154 = sext i32 %153 to i64
  %155 = getelementptr inbounds [14 x i8], [14 x i8]* %1, i64 0, i64 %154
  %156 = load i8, i8* %155, align 1
  %157 = sext i8 %156 to i32
  %158 = call i32 (i8*, ...) @printf(i8* getelementptr inbounds ([3 x i8], [3 x i8]* @.str, i64 0, i64 0), i32 %157)
  br label %159

159:                                              ; preds = %152
  %160 = load i32, i32* %4, align 4
  %161 = add nsw i32 %160, 1
  store i32 %161, i32* %4, align 4
  br label %147

162:                                              ; preds = %147
  %163 = call i32 (i8*, ...) @printf(i8* getelementptr inbounds ([2 x i8], [2 x i8]* @.str.1, i64 0, i64 0))
  br label %9

164:                                              ; preds = %9
  ret void
}

declare dso_local i32 @gets(...) #1

; Function Attrs: nounwind
declare dso_local i8* @strcpy(i8*, i8*) #2

; Function Attrs: nounwind readonly
declare dso_local i64 @strlen(i8*) #3

declare dso_local i32 @printf(i8*, ...) #1


!llvm.module.flags = !{!0}
!llvm.ident = !{!1}

!0 = !{i32 1, !"wchar_size", i32 4}
!1 = !{!"clang version 10.0.0-4ubuntu1 "}
